target datalayout = "e-m:e-p270:32:32-p271:32:32-p272:64:64-i64:64-i128:128-f80:128-n8:16:32:64-S128"
target triple = "x86_64-pc-linux-gnu"

%"class.boost::urls::detail::path_ref" = type { ptr, ptr, i64, i64, i64 }
%"class.boost::urls::segments_ref" = type { %"class.boost::urls::segments_base", ptr }
%"class.boost::urls::segments_base" = type { %"class.boost::urls::detail::path_ref" }
%"class.boost::urls::segments_base::iterator" = type { %"struct.boost::urls::detail::segments_iter_impl" }
%"struct.boost::urls::detail::segments_iter_impl" = type { [8 x i8], %"class.boost::urls::detail::path_ref", i64, i64, i64, i64, %"class.boost::urls::pct_string_view" }
%"class.boost::urls::pct_string_view" = type { %"class.boost::urls::grammar::string_view_base", i64 }
%"class.boost::urls::grammar::string_view_base" = type { %"class.boost::core::basic_string_view" }
%"class.boost::core::basic_string_view" = type { ptr, i64 }
%"struct.boost::urls::detail::any_segments_iter.base" = type <{ ptr, %"class.boost::core::basic_string_view", %"class.boost::core::basic_string_view", i32, i8 }>
%"class.std::initializer_list" = type { ptr, i64 }
%"struct.boost::urls::detail::segments_iter.2" = type { %"struct.boost::urls::detail::any_segments_iter.base", ptr, ptr, ptr }
%"struct.boost::urls::detail::any_segments_iter" = type <{ ptr, %"class.boost::core::basic_string_view", %"class.boost::core::basic_string_view", i32, i8, [3 x i8] }>

; Function Attrs: mustprogress nounwind uwtable
define linkonce_odr hidden void @_ZN5boost4urls6detail17any_segments_iterC2ENS_4core17basic_string_viewIcEE(ptr noundef nonnull align 8 dereferenceable(45) %0, ptr %1, i64 %2) unnamed_addr #2 comdat align 2 {
  %4 = alloca %"class.boost::core::basic_string_view", align 8
  %5 = alloca ptr, align 8
  %6 = getelementptr inbounds nuw { ptr, i64 }, ptr %4, i32 0, i32 0
  store ptr %1, ptr %6, align 8
  %7 = getelementptr inbounds nuw { ptr, i64 }, ptr %4, i32 0, i32 1
  store i64 %2, ptr %7, align 8
  store ptr %0, ptr %5, align 8, !tbaa !3
  %8 = load ptr, ptr %5, align 8
  store ptr getelementptr inbounds inrange(-16, 40) ({ [7 x ptr] }, ptr @_ZTVN5boost4urls6detail17any_segments_iterE, i32 0, i32 0, i32 2), ptr %8, align 8, !tbaa !30
  %9 = getelementptr inbounds nuw %"struct.boost::urls::detail::any_segments_iter", ptr %8, i32 0, i32 1
  call void @llvm.memcpy.p0.p0.i64(ptr align 8 %9, ptr align 8 %4, i64 16, i1 false), !tbaa.struct !16
  %10 = getelementptr inbounds nuw %"struct.boost::urls::detail::any_segments_iter", ptr %8, i32 0, i32 2
  call void @_ZN5boost4core17basic_string_viewIcEC2Ev(ptr noundef nonnull align 8 dereferenceable(16) %10) #11
  %11 = getelementptr inbounds nuw %"struct.boost::urls::detail::any_segments_iter", ptr %8, i32 0, i32 3
  store i32 0, ptr %11, align 8, !tbaa !32
  %12 = getelementptr inbounds nuw %"struct.boost::urls::detail::any_segments_iter", ptr %8, i32 0, i32 4
  store i8 0, ptr %12, align 4, !tbaa !36
  ret void
}

; Function Attrs: mustprogress nounwind uwtable
define linkonce_odr hidden void @_ZN5boost4core17basic_string_viewIcEC2Ev(ptr noundef nonnull align 8 dereferenceable(16) %0) unnamed_addr #2 comdat align 2 {
  %2 = alloca ptr, align 8
  store ptr %0, ptr %2, align 8, !tbaa !3
  %3 = load ptr, ptr %2, align 8
  %4 = getelementptr inbounds nuw %"class.boost::core::basic_string_view", ptr %3, i32 0, i32 0
  store ptr null, ptr %4, align 8, !tbaa !18
  %5 = getelementptr inbounds nuw %"class.boost::core::basic_string_view", ptr %3, i32 0, i32 1
  store i64 0, ptr %5, align 8, !tbaa !20
  ret void
}

; Function Attrs: mustprogress nounwind uwtable
define linkonce_odr hidden void @_ZN5boost4urls6detail13segments_iterIPKNS_4core17basic_string_viewIcEEEC2ES7_S7_(ptr noundef nonnull align 8 dereferenceable(72) %0, ptr noundef %1, ptr noundef %2) unnamed_addr #2 comdat align 2 {
  %4 = alloca ptr, align 8
  %5 = alloca ptr, align 8
  %6 = alloca ptr, align 8
  %7 = alloca %"class.boost::core::basic_string_view", align 8
  %8 = alloca ptr, align 8
  store ptr %0, ptr %4, align 8, !tbaa !3
  store ptr %1, ptr %5, align 8, !tbaa !3
  store ptr %2, ptr %6, align 8, !tbaa !3
  %9 = load ptr, ptr %4, align 8
  call void @_ZN5boost4core17basic_string_viewIcEC2Ev(ptr noundef nonnull align 8 dereferenceable(16) %7) #11
  %10 = getelementptr inbounds nuw { ptr, i64 }, ptr %7, i32 0, i32 0
  %11 = load ptr, ptr %10, align 8
  %12 = getelementptr inbounds nuw { ptr, i64 }, ptr %7, i32 0, i32 1
  %13 = load i64, ptr %12, align 8
  call void @_ZN5boost4urls6detail17any_segments_iterC2ENS_4core17basic_string_viewIcEE(ptr noundef nonnull align 8 dereferenceable(45) %9, ptr %11, i64 %13) #11
  store ptr getelementptr inbounds inrange(-16, 40) ({ [7 x ptr] }, ptr @_ZTVN5boost4urls6detail13segments_iterIPKNS_4core17basic_string_viewIcEEEE, i32 0, i32 0, i32 2), ptr %9, align 8, !tbaa !30
  %14 = getelementptr inbounds nuw %"struct.boost::urls::detail::segments_iter.2", ptr %9, i32 0, i32 1
  %15 = load ptr, ptr %5, align 8, !tbaa !3
  store ptr %15, ptr %14, align 8, !tbaa !44
  %16 = getelementptr inbounds nuw %"struct.boost::urls::detail::segments_iter.2", ptr %9, i32 0, i32 2
  %17 = load ptr, ptr %5, align 8, !tbaa !3
  store ptr %17, ptr %16, align 8, !tbaa !46
  %18 = getelementptr inbounds nuw %"struct.boost::urls::detail::segments_iter.2", ptr %9, i32 0, i32 3
  %19 = load ptr, ptr %6, align 8, !tbaa !3
  store ptr %19, ptr %18, align 8, !tbaa !47
  %20 = load ptr, ptr %5, align 8, !tbaa !3
  %21 = load ptr, ptr %6, align 8, !tbaa !3
  %22 = icmp ne ptr %20, %21
  br i1 %22, label %23, label %36

23:                                               ; preds = %3
  %24 = load ptr, ptr %5, align 8, !tbaa !3
  %25 = getelementptr inbounds nuw %"struct.boost::urls::detail::any_segments_iter", ptr %9, i32 0, i32 2
  call void @llvm.memcpy.p0.p0.i64(ptr align 8 %25, ptr align 8 %24, i64 16, i1 false), !tbaa.struct !16
  call void @llvm.lifetime.start.p0(i64 8, ptr %8) #11
  %26 = load ptr, ptr %5, align 8, !tbaa !3
  store ptr %26, ptr %8, align 8, !tbaa !3
  %27 = load ptr, ptr %8, align 8, !tbaa !3
  %28 = getelementptr inbounds nuw %"class.boost::core::basic_string_view", ptr %27, i32 1
  store ptr %28, ptr %8, align 8, !tbaa !3
  %29 = load ptr, ptr %6, align 8, !tbaa !3
  %30 = icmp eq ptr %28, %29
  br i1 %30, label %31, label %33

31:                                               ; preds = %23
  %32 = getelementptr inbounds nuw %"struct.boost::urls::detail::any_segments_iter", ptr %9, i32 0, i32 3
  store i32 1, ptr %32, align 8, !tbaa !32
  br label %35

33:                                               ; preds = %23
  %34 = getelementptr inbounds nuw %"struct.boost::urls::detail::any_segments_iter", ptr %9, i32 0, i32 3
  store i32 2, ptr %34, align 8, !tbaa !32
  br label %35

35:                                               ; preds = %33, %31
  call void @llvm.lifetime.end.p0(i64 8, ptr %8) #11
  br label %38

36:                                               ; preds = %3
  %37 = getelementptr inbounds nuw %"struct.boost::urls::detail::any_segments_iter", ptr %9, i32 0, i32 3
  store i32 0, ptr %37, align 8, !tbaa !32
  br label %38

38:                                               ; preds = %36, %35
  ret void
}

; Function Attrs: mustprogress nounwind uwtable
define linkonce_odr hidden void @_ZN5boost4urls6detail17any_segments_iterD2Ev(ptr noundef nonnull align 8 dereferenceable(45) %0) unnamed_addr #2 comdat align 2 {
  %2 = alloca ptr, align 8
  store ptr %0, ptr %2, align 8, !tbaa !3
  ret void
}

; Function Attrs: mustprogress nounwind uwtable
define linkonce_odr hidden void @_ZN5boost4urls13segments_base8iteratorC2ERKNS0_6detail18segments_iter_implE(ptr noundef nonnull align 8 dereferenceable(104) %0, ptr noundef nonnull align 8 dereferenceable(104) %1) unnamed_addr #2 comdat align 2 {
  %3 = alloca ptr, align 8
  %4 = alloca ptr, align 8
  store ptr %0, ptr %3, align 8, !tbaa !3
  store ptr %1, ptr %4, align 8, !tbaa !3
  %5 = load ptr, ptr %3, align 8
  %6 = getelementptr inbounds nuw %"class.boost::urls::segments_base::iterator", ptr %5, i32 0, i32 0
  %7 = load ptr, ptr %4, align 8, !tbaa !3
  call void @llvm.memcpy.p0.p0.i64(ptr align 8 %6, ptr align 8 %7, i64 104, i1 false)
  ret void
}

; Function Attrs: mustprogress nounwind uwtable
define linkonce_odr hidden void @_ZN5boost4urls6detail18make_segments_iterIPKNS_4core17basic_string_viewIcEEEENS1_13segments_iterIT_EES9_S9_(ptr dead_on_unwind noalias writable sret(%"struct.boost::urls::detail::segments_iter.2") align 8 %0, ptr noundef %1, ptr noundef %2) #2 comdat {
  %4 = alloca ptr, align 8
  %5 = alloca ptr, align 8
  %6 = alloca ptr, align 8
  store ptr %0, ptr %4, align 8
  store ptr %1, ptr %5, align 8, !tbaa !3
  store ptr %2, ptr %6, align 8, !tbaa !3
  %7 = load ptr, ptr %5, align 8, !tbaa !3
  %8 = load ptr, ptr %6, align 8, !tbaa !3
  call void @_ZN5boost4urls6detail13segments_iterIPKNS_4core17basic_string_viewIcEEEC2ES7_S7_(ptr noundef nonnull align 8 dereferenceable(72) %0, ptr noundef %7, ptr noundef %8) #11
  ret void
}

; Function Attrs: mustprogress uwtable
define linkonce_odr hidden void @_ZN5boost4urls12segments_ref6insertIPKNS_4core17basic_string_viewIcEEEENS0_13segments_base8iteratorES9_T_SA_St20forward_iterator_tag(ptr dead_on_unwind noalias writable sret(%"class.boost::urls::segments_base::iterator") align 8 %0, ptr noundef nonnull align 8 dereferenceable(48) %1, ptr noundef byval(%"class.boost::urls::segments_base::iterator") align 8 %2, ptr noundef %3, ptr noundef %4) #4 comdat align 2 personality ptr @__gxx_personality_v0 {
  %6 = alloca ptr, align 8
  %7 = alloca ptr, align 8
  %8 = alloca ptr, align 8
  %9 = alloca %"struct.boost::urls::detail::segments_iter_impl", align 8
  %10 = alloca %"struct.boost::urls::detail::segments_iter.2", align 8
  %11 = alloca ptr, align 8
  %12 = alloca i32, align 4
  store ptr %1, ptr %6, align 8, !tbaa !3
  store ptr %3, ptr %7, align 8, !tbaa !3
  store ptr %4, ptr %8, align 8, !tbaa !3
  %13 = load ptr, ptr %6, align 8
  call void @llvm.lifetime.start.p0(i64 104, ptr %9) #11
  %14 = getelementptr inbounds nuw %"class.boost::urls::segments_ref", ptr %13, i32 0, i32 1
  %15 = load ptr, ptr %14, align 8, !tbaa !7
  %16 = getelementptr inbounds nuw %"class.boost::urls::segments_base::iterator", ptr %2, i32 0, i32 0
  %17 = getelementptr inbounds nuw %"class.boost::urls::segments_base::iterator", ptr %2, i32 0, i32 0
  call void @llvm.lifetime.start.p0(i64 72, ptr %10) #11
  %18 = load ptr, ptr %7, align 8, !tbaa !3
  %19 = load ptr, ptr %8, align 8, !tbaa !3
  call void @_ZN5boost4urls6detail18make_segments_iterIPKNS_4core17basic_string_viewIcEEEENS1_13segments_iterIT_EES9_S9_(ptr dead_on_unwind writable sret(%"struct.boost::urls::detail::segments_iter.2") align 8 %10, ptr noundef %18, ptr noundef %19)
  invoke void @_ZN5boost4urls8url_base13edit_segmentsERKNS0_6detail18segments_iter_implES5_ONS2_17any_segments_iterEi(ptr dead_on_unwind writable sret(%"struct.boost::urls::detail::segments_iter_impl") align 8 %9, ptr noundef nonnull align 8 dereferenceable(216) %15, ptr noundef nonnull align 8 dereferenceable(104) %16, ptr noundef nonnull align 8 dereferenceable(104) %17, ptr noundef nonnull align 8 dereferenceable(45) %10, i32 noundef -1)
          to label %20 unwind label %21

20:                                               ; preds = %5
  call void @_ZN5boost4urls13segments_base8iteratorC2ERKNS0_6detail18segments_iter_implE(ptr noundef nonnull align 8 dereferenceable(104) %0, ptr noundef nonnull align 8 dereferenceable(104) %9) #11
  call void @_ZN5boost4urls6detail17any_segments_iterD2Ev(ptr noundef nonnull align 8 dereferenceable(72) %10) #11
  call void @llvm.lifetime.end.p0(i64 72, ptr %10) #11
  call void @llvm.lifetime.end.p0(i64 104, ptr %9) #11
  ret void

21:                                               ; preds = %5
  %22 = landingpad { ptr, i32 }
          cleanup
  %23 = extractvalue { ptr, i32 } %22, 0
  store ptr %23, ptr %11, align 8
  %24 = extractvalue { ptr, i32 } %22, 1
  store i32 %24, ptr %12, align 4
  call void @_ZN5boost4urls6detail17any_segments_iterD2Ev(ptr noundef nonnull align 8 dereferenceable(72) %10) #11
  call void @llvm.lifetime.end.p0(i64 72, ptr %10) #11
  call void @llvm.lifetime.end.p0(i64 104, ptr %9) #11
  br label %25

25:                                               ; preds = %21
  %26 = load ptr, ptr %11, align 8
  %27 = load i32, ptr %12, align 4
  %28 = insertvalue { ptr, i32 } poison, ptr %26, 0
  %29 = insertvalue { ptr, i32 } %28, i32 %27, 1
  resume { ptr, i32 } %29
}

; Function Attrs: mustprogress nounwind uwtable
define linkonce_odr hidden noundef i64 @_ZNKSt16initializer_listIN5boost4core17basic_string_viewIcEEE4sizeEv(ptr noundef nonnull align 8 dereferenceable(16) %0) #2 comdat align 2 {
  %2 = alloca ptr, align 8
  store ptr %0, ptr %2, align 8, !tbaa !3
  %3 = load ptr, ptr %2, align 8
  %4 = getelementptr inbounds nuw %"class.std::initializer_list", ptr %3, i32 0, i32 1
  %5 = load i64, ptr %4, align 8, !tbaa !21
  ret i64 %5
}

; Function Attrs: mustprogress uwtable
define linkonce_odr hidden void @_ZN5boost4urls12segments_ref6insertIPKNS_4core17basic_string_viewIcEEEENS0_13segments_base8iteratorES9_T_SA_(ptr dead_on_unwind noalias writable sret(%"class.boost::urls::segments_base::iterator") align 8 %0, ptr noundef nonnull align 8 dereferenceable(48) %1, ptr noundef byval(%"class.boost::urls::segments_base::iterator") align 8 %2, ptr noundef %3, ptr noundef %4) #4 comdat align 2 {
  %6 = alloca ptr, align 8
  %7 = alloca ptr, align 8
  %8 = alloca ptr, align 8
  %9 = alloca %"class.boost::urls::segments_base::iterator", align 8
  store ptr %1, ptr %6, align 8, !tbaa !3
  store ptr %3, ptr %7, align 8, !tbaa !3
  store ptr %4, ptr %8, align 8, !tbaa !3
  %10 = load ptr, ptr %6, align 8
  call void @llvm.memcpy.p0.p0.i64(ptr align 8 %9, ptr align 8 %2, i64 104, i1 false)
  %11 = load ptr, ptr %7, align 8, !tbaa !3
  %12 = load ptr, ptr %8, align 8, !tbaa !3
  call void @_ZN5boost4urls12segments_ref6insertIPKNS_4core17basic_string_viewIcEEEENS0_13segments_base8iteratorES9_T_SA_St20forward_iterator_tag(ptr dead_on_unwind writable sret(%"class.boost::urls::segments_base::iterator") align 8 %0, ptr noundef nonnull align 8 dereferenceable(48) %10, ptr noundef byval(%"class.boost::urls::segments_base::iterator") align 8 %9, ptr noundef %11, ptr noundef %12)
  ret void
}

; Function Attrs: mustprogress nounwind uwtable
define linkonce_odr hidden noundef ptr @_ZNKSt16initializer_listIN5boost4core17basic_string_viewIcEEE3endEv(ptr noundef nonnull align 8 dereferenceable(16) %0) #2 comdat align 2 {
  %2 = alloca ptr, align 8
  store ptr %0, ptr %2, align 8, !tbaa !3
  %3 = load ptr, ptr %2, align 8
  %4 = call noundef ptr @_ZNKSt16initializer_listIN5boost4core17basic_string_viewIcEEE5beginEv(ptr noundef nonnull align 8 dereferenceable(16) %3) #11
  %5 = call noundef i64 @_ZNKSt16initializer_listIN5boost4core17basic_string_viewIcEEE4sizeEv(ptr noundef nonnull align 8 dereferenceable(16) %3) #11
  %6 = getelementptr inbounds nuw %"class.boost::core::basic_string_view", ptr %4, i64 %5
  ret ptr %6
}

; Function Attrs: mustprogress nounwind uwtable
define linkonce_odr hidden noundef ptr @_ZNKSt16initializer_listIN5boost4core17basic_string_viewIcEEE5beginEv(ptr noundef nonnull align 8 dereferenceable(16) %0) #2 comdat align 2 {
  %2 = alloca ptr, align 8
  store ptr %0, ptr %2, align 8, !tbaa !3
  %3 = load ptr, ptr %2, align 8
  %4 = getelementptr inbounds nuw %"class.std::initializer_list", ptr %3, i32 0, i32 0
  %5 = load ptr, ptr %4, align 8, !tbaa !14
  ret ptr %5
}

; Function Attrs: mustprogress uwtable
define void @_ZN5boost4urls12segments_ref6insertENS0_13segments_base8iteratorESt16initializer_listINS_4core17basic_string_viewIcEEE(ptr dead_on_unwind noalias writable sret(%"class.boost::urls::segments_base::iterator") align 8 %0, ptr noundef nonnull align 8 dereferenceable(48) %1, ptr noundef byval(%"class.boost::urls::segments_base::iterator") align 8 %2, ptr %3, i64 %4) #4 align 2 {
  %6 = alloca %"class.std::initializer_list", align 8
  %7 = alloca ptr, align 8
  %8 = alloca %"class.boost::urls::segments_base::iterator", align 8
  %9 = getelementptr inbounds nuw { ptr, i64 }, ptr %6, i32 0, i32 0
  store ptr %3, ptr %9, align 8
  %10 = getelementptr inbounds nuw { ptr, i64 }, ptr %6, i32 0, i32 1
  store i64 %4, ptr %10, align 8
  store ptr %1, ptr %7, align 8, !tbaa !3
  %11 = load ptr, ptr %7, align 8
  call void @llvm.memcpy.p0.p0.i64(ptr align 8 %8, ptr align 8 %2, i64 104, i1 false)
  %12 = call noundef ptr @_ZNKSt16initializer_listIN5boost4core17basic_string_viewIcEEE5beginEv(ptr noundef nonnull align 8 dereferenceable(16) %6) #11
  %13 = call noundef ptr @_ZNKSt16initializer_listIN5boost4core17basic_string_viewIcEEE3endEv(ptr noundef nonnull align 8 dereferenceable(16) %6) #11
  call void @_ZN5boost4urls12segments_ref6insertIPKNS_4core17basic_string_viewIcEEEENS0_13segments_base8iteratorES9_T_SA_(ptr dead_on_unwind writable sret(%"class.boost::urls::segments_base::iterator") align 8 %0, ptr noundef nonnull align 8 dereferenceable(48) %11, ptr noundef byval(%"class.boost::urls::segments_base::iterator") align 8 %8, ptr noundef %12, ptr noundef %13)
  ret void
}