; Function Attrs: mustprogress uwtable
define void @_ZN5boost4urls12segments_ref6insertENS0_13segments_base8iteratorESt16initializer_listINS_4core17basic_string_viewIcEEE(ptr dead_on_unwind noalias writable sret(%"class.boost::urls::segments_base::iterator") align 8 %0, ptr nocapture noundef nonnull readonly align 8 dereferenceable(48) %1, ptr nocapture noundef readonly byval(%"class.boost::urls::segments_base::iterator") align 8 %2, ptr %3, i64 %4) local_unnamed_addr #5 align 2 personality ptr @__gxx_personality_v0 {
  %6 = alloca %"struct.boost::urls::detail::segments_iter.2", align 8
  %7 = alloca %"class.boost::urls::segments_base::iterator", align 8
  call void @llvm.lifetime.start.p0(i64 104, ptr nonnull %7), !noalias !45
  call void @llvm.memcpy.p0.p0.i64(ptr noundef nonnull align 8 dereferenceable(104) %7, ptr noundef nonnull align 8 dereferenceable(104) %2, i64 104, i1 false)
  %.idx = shl nuw nsw i64 %4, 4
  %8 = getelementptr inbounds nuw i8, ptr %3, i64 %.idx
  %9 = getelementptr inbounds nuw i8, ptr %1, i64 40
  %10 = load ptr, ptr %9, align 8, !tbaa !3, !noalias !48
  call void @llvm.lifetime.start.p0(i64 72, ptr nonnull %6) #13, !noalias !48
  %11 = getelementptr inbounds nuw i8, ptr %6, i64 8
  call void @llvm.memset.p0.i64(ptr noundef nonnull align 8 dereferenceable(37) %11, i8 0, i64 37, i1 false), !alias.scope !51, !noalias !48
  store ptr getelementptr inbounds inrange(-16, 40) (i8, ptr @_ZTVN5boost4urls6detail13segments_iterIPKNS_4core17basic_string_viewIcEEEE, i64 16), ptr %6, align 8, !tbaa !16, !alias.scope !51, !noalias !48
  %12 = getelementptr inbounds nuw i8, ptr %6, i64 48
  store ptr %3, ptr %12, align 8, !tbaa !33, !alias.scope !51, !noalias !48
  %13 = getelementptr inbounds nuw i8, ptr %6, i64 56
  store ptr %3, ptr %13, align 8, !tbaa !38, !alias.scope !51, !noalias !48
  %14 = getelementptr inbounds nuw i8, ptr %6, i64 64
  store ptr %8, ptr %14, align 8, !tbaa !39, !alias.scope !51, !noalias !48
  %.not.i.i.i.i = icmp eq i64 %4, 0
  br i1 %.not.i.i.i.i, label %_ZN5boost4urls12segments_ref6insertIPKNS_4core17basic_string_viewIcEEEENS0_13segments_base8iteratorES9_T_SA_.exit, label %.sink.split.i.i.i.i

.sink.split.i.i.i.i:                              ; preds = %5
  %15 = getelementptr inbounds nuw i8, ptr %6, i64 24
  call void @llvm.memcpy.p0.p0.i64(ptr noundef nonnull align 8 dereferenceable(16) %15, ptr noundef nonnull align 8 dereferenceable(16) %3, i64 16, i1 false), !tbaa.struct !40, !noalias !48
  %16 = icmp eq i64 %4, 1
  %17 = getelementptr inbounds nuw i8, ptr %6, i64 40
  %..i.i.i.i = select i1 %16, i32 1, i32 2
  store i32 %..i.i.i.i, ptr %17, align 8, !tbaa !41, !alias.scope !51, !noalias !48
  br label %_ZN5boost4urls12segments_ref6insertIPKNS_4core17basic_string_viewIcEEEENS0_13segments_base8iteratorES9_T_SA_.exit

_ZN5boost4urls12segments_ref6insertIPKNS_4core17basic_string_viewIcEEEENS0_13segments_base8iteratorES9_T_SA_.exit: ; preds = %5, %.sink.split.i.i.i.i
  call void @_ZN5boost4urls8url_base13edit_segmentsERKNS0_6detail18segments_iter_implES5_ONS2_17any_segments_iterEi(ptr dead_on_unwind nonnull writable sret(%"struct.boost::urls::detail::segments_iter_impl") align 8 %0, ptr noundef nonnull align 8 dereferenceable(216) %10, ptr noundef nonnull align 8 dereferenceable(104) %7, ptr noundef nonnull align 8 dereferenceable(104) %7, ptr noundef nonnull align 8 dereferenceable(45) %6, i32 noundef -1)
  call void @llvm.lifetime.end.p0(i64 72, ptr nonnull %6) #13, !noalias !48
  call void @llvm.lifetime.end.p0(i64 104, ptr nonnull %7), !noalias !45
  ret void
}